target datalayout = "e-m:e-p270:32:32-p271:32:32-p272:64:64-i64:64-i128:128-f80:128-n8:16:32:64-S128"
target triple = "x86_64-pc-linux-gnu"

%"class.clang::TemplateArgument" = type { %union.anon.632 }
%union.anon.632 = type { %"struct.clang::TemplateArgument::DA" }
%"struct.clang::TemplateArgument::DA" = type { i32, ptr, ptr }
%"class.clang::QualType" = type { %"class.llvm::PointerIntPair.53" }
%"class.llvm::PointerIntPair.53" = type { %"struct.llvm::detail::PunnedPointer.54" }
%"struct.llvm::detail::PunnedPointer.54" = type { [8 x i8] }
%"class.clang::ExtQualsTypeCommonBase" = type { ptr, %"class.clang::QualType" }
%"class.clang::Type.base" = type { %"class.clang::ExtQualsTypeCommonBase", %union.anon.87 }
%union.anon.87 = type { %"class.clang::Type::FunctionTypeBitfields" }
%"class.clang::Type::FunctionTypeBitfields" = type { i64 }
%"class.llvm::FoldingSetBase::Node" = type { ptr }
%"class.clang::Type" = type { %"class.clang::ExtQualsTypeCommonBase", %union.anon.87, [8 x i8] }
%"class.llvm::ArrayRef.631" = type { ptr, i64 }
%"class.clang::TypeWithKeyword.base" = type { %"class.clang::Type.base" }
%"class.clang::DependentTemplateSpecializationType" = type { %"class.clang::TypeWithKeyword.base", %"class.llvm::FoldingSetBase::Node", ptr, ptr }
%"class.clang::Type::DependentTemplateSpecializationTypeBitfields" = type { i32, i32 }

; Function Attrs: mustprogress nounwind uwtable
define internal noundef zeroext i1 @_ZN5clang19RecursiveASTVisitorIN12_GLOBAL__N_114NamesCollectorEE9VisitTypeEPNS_4TypeE(ptr noundef nonnull align 1 dereferenceable(1) %0, ptr noundef %1) #0 align 2 {
  %3 = alloca ptr, align 8
  %4 = alloca ptr, align 8
  store ptr %0, ptr %3, align 8
  store ptr %1, ptr %4, align 8
  ret i1 true
}

; Function Attrs: mustprogress nounwind uwtable
define linkonce_odr hidden noundef ptr @_ZNK4llvm8ArrayRefIN5clang16TemplateArgumentEE3endEv(ptr noundef nonnull align 8 dereferenceable(16) %0) #0 comdat align 2 {
  %2 = alloca ptr, align 8
  store ptr %0, ptr %2, align 8
  %3 = load ptr, ptr %2, align 8
  %4 = getelementptr inbounds nuw %"class.llvm::ArrayRef.631", ptr %3, i32 0, i32 0
  %5 = load ptr, ptr %4, align 8
  %6 = getelementptr inbounds nuw %"class.llvm::ArrayRef.631", ptr %3, i32 0, i32 1
  %7 = load i64, ptr %6, align 8
  %8 = getelementptr inbounds %"class.clang::TemplateArgument", ptr %5, i64 %7
  ret ptr %8
}

; Function Attrs: mustprogress nounwind uwtable
define linkonce_odr hidden noundef ptr @_ZNK4llvm8ArrayRefIN5clang16TemplateArgumentEE5beginEv(ptr noundef nonnull align 8 dereferenceable(16) %0) #0 comdat align 2 {
  %2 = alloca ptr, align 8
  store ptr %0, ptr %2, align 8
  %3 = load ptr, ptr %2, align 8
  %4 = getelementptr inbounds nuw %"class.llvm::ArrayRef.631", ptr %3, i32 0, i32 0
  %5 = load ptr, ptr %4, align 8
  ret ptr %5
}

; Function Attrs: mustprogress nounwind uwtable
define linkonce_odr hidden void @_ZN4llvm8ArrayRefIN5clang16TemplateArgumentEEC2EPKS2_m(ptr noundef nonnull align 8 dereferenceable(16) %0, ptr noundef %1, i64 noundef %2) unnamed_addr #0 comdat align 2 {
  %4 = alloca ptr, align 8
  %5 = alloca ptr, align 8
  %6 = alloca i64, align 8
  store ptr %0, ptr %4, align 8
  store ptr %1, ptr %5, align 8
  store i64 %2, ptr %6, align 8
  %7 = load ptr, ptr %4, align 8
  %8 = getelementptr inbounds nuw %"class.llvm::ArrayRef.631", ptr %7, i32 0, i32 0
  %9 = load ptr, ptr %5, align 8
  store ptr %9, ptr %8, align 8
  %10 = getelementptr inbounds nuw %"class.llvm::ArrayRef.631", ptr %7, i32 0, i32 1
  %11 = load i64, ptr %6, align 8
  store i64 %11, ptr %10, align 8
  ret void
}

; Function Attrs: mustprogress nounwind uwtable
define internal noundef zeroext i1 @_ZN5clang19RecursiveASTVisitorIN12_GLOBAL__N_114NamesCollectorEE40VisitDependentTemplateSpecializationTypeEPNS_35DependentTemplateSpecializationTypeE(ptr noundef nonnull align 1 dereferenceable(1) %0, ptr noundef %1) #0 align 2 {
  %3 = alloca ptr, align 8
  %4 = alloca ptr, align 8
  store ptr %0, ptr %3, align 8
  store ptr %1, ptr %4, align 8
  ret i1 true
}

; Function Attrs: mustprogress nounwind uwtable
define internal noundef zeroext i1 @_ZN5clang19RecursiveASTVisitorIN12_GLOBAL__N_114NamesCollectorEE14WalkUpFromTypeEPNS_4TypeE(ptr noundef nonnull align 1 dereferenceable(1) %0, ptr noundef %1) #0 align 2 {
  %3 = alloca ptr, align 8
  %4 = alloca ptr, align 8
  store ptr %0, ptr %3, align 8
  store ptr %1, ptr %4, align 8
  %5 = load ptr, ptr %3, align 8
  %6 = call noundef nonnull align 8 dereferenceable(96) ptr @_ZN5clang19RecursiveASTVisitorIN12_GLOBAL__N_114NamesCollectorEE10getDerivedEv(ptr noundef nonnull align 1 dereferenceable(1) %5)
  %7 = load ptr, ptr %4, align 8
  %8 = call noundef zeroext i1 @_ZN5clang19RecursiveASTVisitorIN12_GLOBAL__N_114NamesCollectorEE9VisitTypeEPNS_4TypeE(ptr noundef nonnull align 1 dereferenceable(1) %6, ptr noundef %7)
  ret i1 %8
}

; Function Attrs: mustprogress nounwind uwtable
define internal noundef zeroext i1 @_ZN5clang19RecursiveASTVisitorIN12_GLOBAL__N_114NamesCollectorEE25TraverseTemplateArgumentsEN4llvm8ArrayRefINS_16TemplateArgumentEEE(ptr noundef nonnull align 1 dereferenceable(1) %0, ptr %1, i64 %2) #0 align 2 {
  %4 = alloca i1, align 1
  %5 = alloca %"class.llvm::ArrayRef.631", align 8
  %6 = alloca ptr, align 8
  %7 = alloca ptr, align 8
  %8 = alloca ptr, align 8
  %9 = alloca ptr, align 8
  %10 = alloca ptr, align 8
  %11 = getelementptr inbounds nuw { ptr, i64 }, ptr %5, i32 0, i32 0
  store ptr %1, ptr %11, align 8
  %12 = getelementptr inbounds nuw { ptr, i64 }, ptr %5, i32 0, i32 1
  store i64 %2, ptr %12, align 8
  store ptr %0, ptr %6, align 8
  %13 = load ptr, ptr %6, align 8
  store ptr %5, ptr %7, align 8
  %14 = load ptr, ptr %7, align 8
  %15 = call noundef ptr @_ZNK4llvm8ArrayRefIN5clang16TemplateArgumentEE5beginEv(ptr noundef nonnull align 8 dereferenceable(16) %14)
  store ptr %15, ptr %8, align 8
  %16 = load ptr, ptr %7, align 8
  %17 = call noundef ptr @_ZNK4llvm8ArrayRefIN5clang16TemplateArgumentEE3endEv(ptr noundef nonnull align 8 dereferenceable(16) %16)
  store ptr %17, ptr %9, align 8
  br label %18

18:                                               ; preds = %31, %3
  %19 = load ptr, ptr %8, align 8
  %20 = load ptr, ptr %9, align 8
  %21 = icmp ne ptr %19, %20
  br i1 %21, label %22, label %34

22:                                               ; preds = %18
  %23 = load ptr, ptr %8, align 8
  store ptr %23, ptr %10, align 8
  br label %24

24:                                               ; preds = %22
  %25 = call noundef nonnull align 8 dereferenceable(96) ptr @_ZN5clang19RecursiveASTVisitorIN12_GLOBAL__N_114NamesCollectorEE10getDerivedEv(ptr noundef nonnull align 1 dereferenceable(1) %13)
  %26 = load ptr, ptr %10, align 8
  %27 = call noundef zeroext i1 @_ZN5clang19RecursiveASTVisitorIN12_GLOBAL__N_114NamesCollectorEE24TraverseTemplateArgumentERKNS_16TemplateArgumentE(ptr noundef nonnull align 1 dereferenceable(1) %25, ptr noundef nonnull align 8 dereferenceable(24) %26)
  br i1 %27, label %29, label %28

28:                                               ; preds = %24
  store i1 false, ptr %4, align 1
  br label %35

29:                                               ; preds = %24
  br label %30

30:                                               ; preds = %29
  br label %31

31:                                               ; preds = %30
  %32 = load ptr, ptr %8, align 8
  %33 = getelementptr inbounds %"class.clang::TemplateArgument", ptr %32, i32 1
  store ptr %33, ptr %8, align 8
  br label %18

34:                                               ; preds = %18
  store i1 true, ptr %4, align 1
  br label %35

35:                                               ; preds = %34, %28
  %36 = load i1, ptr %4, align 1
  ret i1 %36
}

; Function Attrs: mustprogress nounwind uwtable
define linkonce_odr hidden { ptr, i64 } @_ZNK5clang35DependentTemplateSpecializationType18template_argumentsEv(ptr noundef nonnull align 16 dereferenceable(48) %0) #0 comdat align 2 {
  %2 = alloca %"class.llvm::ArrayRef.631", align 8
  %3 = alloca ptr, align 8
  store ptr %0, ptr %3, align 8
  %4 = load ptr, ptr %3, align 8
  %5 = getelementptr inbounds %"class.clang::DependentTemplateSpecializationType", ptr %4, i64 1
  %6 = getelementptr inbounds nuw %"class.clang::Type", ptr %4, i32 0, i32 1
  %7 = getelementptr inbounds nuw %"class.clang::Type::DependentTemplateSpecializationTypeBitfields", ptr %6, i32 0, i32 1
  %8 = load i32, ptr %7, align 4
  %9 = zext i32 %8 to i64
  call void @_ZN4llvm8ArrayRefIN5clang16TemplateArgumentEEC2EPKS2_m(ptr noundef nonnull align 8 dereferenceable(16) %2, ptr noundef %5, i64 noundef %9)
  %10 = load { ptr, i64 }, ptr %2, align 8
  ret { ptr, i64 } %10
}

; Function Attrs: mustprogress nounwind uwtable
define linkonce_odr hidden noundef ptr @_ZNK5clang35DependentTemplateSpecializationType12getQualifierEv(ptr noundef nonnull align 16 dereferenceable(48) %0) #0 comdat align 2 {
  %2 = alloca ptr, align 8
  store ptr %0, ptr %2, align 8
  %3 = load ptr, ptr %2, align 8
  %4 = getelementptr inbounds nuw %"class.clang::DependentTemplateSpecializationType", ptr %3, i32 0, i32 2
  %5 = load ptr, ptr %4, align 16
  ret ptr %5
}

; Function Attrs: mustprogress nounwind uwtable
define internal noundef zeroext i1 @_ZN5clang19RecursiveASTVisitorIN12_GLOBAL__N_114NamesCollectorEE45WalkUpFromDependentTemplateSpecializationTypeEPNS_35DependentTemplateSpecializationTypeE(ptr noundef nonnull align 1 dereferenceable(1) %0, ptr noundef %1) #0 align 2 {
  %3 = alloca i1, align 1
  %4 = alloca ptr, align 8
  %5 = alloca ptr, align 8
  store ptr %0, ptr %4, align 8
  store ptr %1, ptr %5, align 8
  %6 = load ptr, ptr %4, align 8
  br label %7

7:                                                ; preds = %2
  %8 = call noundef nonnull align 8 dereferenceable(96) ptr @_ZN5clang19RecursiveASTVisitorIN12_GLOBAL__N_114NamesCollectorEE10getDerivedEv(ptr noundef nonnull align 1 dereferenceable(1) %6)
  %9 = load ptr, ptr %5, align 8
  %10 = call noundef zeroext i1 @_ZN5clang19RecursiveASTVisitorIN12_GLOBAL__N_114NamesCollectorEE14WalkUpFromTypeEPNS_4TypeE(ptr noundef nonnull align 1 dereferenceable(1) %8, ptr noundef %9)
  br i1 %10, label %12, label %11

11:                                               ; preds = %7
  store i1 false, ptr %3, align 1
  br label %21

12:                                               ; preds = %7
  br label %13

13:                                               ; preds = %12
  br label %14

14:                                               ; preds = %13
  %15 = call noundef nonnull align 8 dereferenceable(96) ptr @_ZN5clang19RecursiveASTVisitorIN12_GLOBAL__N_114NamesCollectorEE10getDerivedEv(ptr noundef nonnull align 1 dereferenceable(1) %6)
  %16 = load ptr, ptr %5, align 8
  %17 = call noundef zeroext i1 @_ZN5clang19RecursiveASTVisitorIN12_GLOBAL__N_114NamesCollectorEE40VisitDependentTemplateSpecializationTypeEPNS_35DependentTemplateSpecializationTypeE(ptr noundef nonnull align 1 dereferenceable(1) %15, ptr noundef %16)
  br i1 %17, label %19, label %18

18:                                               ; preds = %14
  store i1 false, ptr %3, align 1
  br label %21

19:                                               ; preds = %14
  br label %20

20:                                               ; preds = %19
  store i1 true, ptr %3, align 1
  br label %21

21:                                               ; preds = %20, %18, %11
  %22 = load i1, ptr %3, align 1
  ret i1 %22
}

; Function Attrs: mustprogress nounwind uwtable
define internal noundef zeroext i1 @_ZNK5clang19RecursiveASTVisitorIN12_GLOBAL__N_114NamesCollectorEE23shouldTraversePostOrderEv(ptr noundef nonnull align 1 dereferenceable(1) %0) #0 align 2 {
  %2 = alloca ptr, align 8
  store ptr %0, ptr %2, align 8
  ret i1 false
}

; Function Attrs: mustprogress nounwind uwtable
define internal noundef nonnull align 8 dereferenceable(96) ptr @_ZN5clang19RecursiveASTVisitorIN12_GLOBAL__N_114NamesCollectorEE10getDerivedEv(ptr noundef nonnull align 1 dereferenceable(1) %0) #0 align 2 {
  %2 = alloca ptr, align 8
  store ptr %0, ptr %2, align 8
  %3 = load ptr, ptr %2, align 8
  ret ptr %3
}

; Function Attrs: mustprogress nounwind uwtable
define internal noundef zeroext i1 @_ZN5clang19RecursiveASTVisitorIN12_GLOBAL__N_114NamesCollectorEE43TraverseDependentTemplateSpecializationTypeEPNS_35DependentTemplateSpecializationTypeE(ptr noundef nonnull align 1 dereferenceable(1) %0, ptr noundef %1) #0 align 2 {
  %3 = alloca i1, align 1
  %4 = alloca ptr, align 8
  %5 = alloca ptr, align 8
  %6 = alloca %"class.llvm::ArrayRef.631", align 8
  store ptr %0, ptr %4, align 8
  store ptr %1, ptr %5, align 8
  %7 = load ptr, ptr %4, align 8
  %8 = call noundef nonnull align 8 dereferenceable(96) ptr @_ZN5clang19RecursiveASTVisitorIN12_GLOBAL__N_114NamesCollectorEE10getDerivedEv(ptr noundef nonnull align 1 dereferenceable(1) %7)
  %9 = call noundef zeroext i1 @_ZNK5clang19RecursiveASTVisitorIN12_GLOBAL__N_114NamesCollectorEE23shouldTraversePostOrderEv(ptr noundef nonnull align 1 dereferenceable(1) %8)
  br i1 %9, label %18, label %10

10:                                               ; preds = %2
  br label %11

11:                                               ; preds = %10
  %12 = call noundef nonnull align 8 dereferenceable(96) ptr @_ZN5clang19RecursiveASTVisitorIN12_GLOBAL__N_114NamesCollectorEE10getDerivedEv(ptr noundef nonnull align 1 dereferenceable(1) %7)
  %13 = load ptr, ptr %5, align 8
  %14 = call noundef zeroext i1 @_ZN5clang19RecursiveASTVisitorIN12_GLOBAL__N_114NamesCollectorEE45WalkUpFromDependentTemplateSpecializationTypeEPNS_35DependentTemplateSpecializationTypeE(ptr noundef nonnull align 1 dereferenceable(1) %12, ptr noundef %13)
  br i1 %14, label %16, label %15

15:                                               ; preds = %11
  store i1 false, ptr %3, align 1
  br label %54

16:                                               ; preds = %11
  br label %17

17:                                               ; preds = %16
  br label %18

18:                                               ; preds = %17, %2
  br label %19

19:                                               ; preds = %18
  %20 = call noundef nonnull align 8 dereferenceable(96) ptr @_ZN5clang19RecursiveASTVisitorIN12_GLOBAL__N_114NamesCollectorEE10getDerivedEv(ptr noundef nonnull align 1 dereferenceable(1) %7)
  %21 = load ptr, ptr %5, align 8
  %22 = call noundef ptr @_ZNK5clang35DependentTemplateSpecializationType12getQualifierEv(ptr noundef nonnull align 16 dereferenceable(48) %21)
  %23 = call noundef zeroext i1 @_ZN5clang19RecursiveASTVisitorIN12_GLOBAL__N_114NamesCollectorEE27TraverseNestedNameSpecifierEPNS_19NestedNameSpecifierE(ptr noundef nonnull align 1 dereferenceable(1) %20, ptr noundef %22)
  br i1 %23, label %25, label %24

24:                                               ; preds = %19
  store i1 false, ptr %3, align 1
  br label %54

25:                                               ; preds = %19
  br label %26

26:                                               ; preds = %25
  br label %27

27:                                               ; preds = %26
  %28 = call noundef nonnull align 8 dereferenceable(96) ptr @_ZN5clang19RecursiveASTVisitorIN12_GLOBAL__N_114NamesCollectorEE10getDerivedEv(ptr noundef nonnull align 1 dereferenceable(1) %7)
  %29 = load ptr, ptr %5, align 8
  %30 = call { ptr, i64 } @_ZNK5clang35DependentTemplateSpecializationType18template_argumentsEv(ptr noundef nonnull align 16 dereferenceable(48) %29)
  %31 = getelementptr inbounds nuw { ptr, i64 }, ptr %6, i32 0, i32 0
  %32 = extractvalue { ptr, i64 } %30, 0
  store ptr %32, ptr %31, align 8
  %33 = getelementptr inbounds nuw { ptr, i64 }, ptr %6, i32 0, i32 1
  %34 = extractvalue { ptr, i64 } %30, 1
  store i64 %34, ptr %33, align 8
  %35 = getelementptr inbounds nuw { ptr, i64 }, ptr %6, i32 0, i32 0
  %36 = load ptr, ptr %35, align 8
  %37 = getelementptr inbounds nuw { ptr, i64 }, ptr %6, i32 0, i32 1
  %38 = load i64, ptr %37, align 8
  %39 = call noundef zeroext i1 @_ZN5clang19RecursiveASTVisitorIN12_GLOBAL__N_114NamesCollectorEE25TraverseTemplateArgumentsEN4llvm8ArrayRefINS_16TemplateArgumentEEE(ptr noundef nonnull align 1 dereferenceable(1) %28, ptr %36, i64 %38)
  br i1 %39, label %41, label %40

40:                                               ; preds = %27
  store i1 false, ptr %3, align 1
  br label %54

41:                                               ; preds = %27
  br label %42

42:                                               ; preds = %41
  %43 = call noundef nonnull align 8 dereferenceable(96) ptr @_ZN5clang19RecursiveASTVisitorIN12_GLOBAL__N_114NamesCollectorEE10getDerivedEv(ptr noundef nonnull align 1 dereferenceable(1) %7)
  %44 = call noundef zeroext i1 @_ZNK5clang19RecursiveASTVisitorIN12_GLOBAL__N_114NamesCollectorEE23shouldTraversePostOrderEv(ptr noundef nonnull align 1 dereferenceable(1) %43)
  br i1 %44, label %45, label %53

45:                                               ; preds = %42
  br label %46

46:                                               ; preds = %45
  %47 = call noundef nonnull align 8 dereferenceable(96) ptr @_ZN5clang19RecursiveASTVisitorIN12_GLOBAL__N_114NamesCollectorEE10getDerivedEv(ptr noundef nonnull align 1 dereferenceable(1) %7)
  %48 = load ptr, ptr %5, align 8
  %49 = call noundef zeroext i1 @_ZN5clang19RecursiveASTVisitorIN12_GLOBAL__N_114NamesCollectorEE45WalkUpFromDependentTemplateSpecializationTypeEPNS_35DependentTemplateSpecializationTypeE(ptr noundef nonnull align 1 dereferenceable(1) %47, ptr noundef %48)
  br i1 %49, label %51, label %50

50:                                               ; preds = %46
  store i1 false, ptr %3, align 1
  br label %54

51:                                               ; preds = %46
  br label %52

52:                                               ; preds = %51
  br label %53

53:                                               ; preds = %52, %42
  store i1 true, ptr %3, align 1
  br label %54

54:                                               ; preds = %53, %50, %40, %24, %15
  %55 = load i1, ptr %3, align 1
  ret i1 %55
}